target datalayout = "e-m:e-p270:32:32-p271:32:32-p272:64:64-i64:64-i128:128-f80:128-n8:16:32:64-S128"
target triple = "x86_64-unknown-linux-gnu"

%struct.btInfMaskConverter = type { %union.anon }
%union.anon = type { float }
%class.btConcaveShape = type <{ %class.btCollisionShape, float, [4 x i8] }>
%class.btCollisionShape = type { ptr, i32, ptr, i32, i32 }
%class.btVector3 = type { [4 x float] }

$_ZN18btInfMaskConverterC2Ei = comdat any

$_ZN16btCollisionShapeC2Ev = comdat any

$_ZN16btCollisionShapeD2Ev = comdat any

$_ZNK16btCollisionShape38getAnisotropicRollingFrictionDirectionEv = comdat any

$_ZN14btConcaveShape9setMarginEf = comdat any

$_ZNK14btConcaveShape9getMarginEv = comdat any

$_ZNK16btCollisionShape28calculateSerializeBufferSizeEv = comdat any

$_ZN9btVector3C2ERKfS1_S1_ = comdat any

@_ZL14btInfinityMask = internal global %struct.btInfMaskConverter zeroinitializer, align 4
@_ZTV14btConcaveShape = dso_local unnamed_addr constant { [19 x ptr] } { [19 x ptr] [ptr null, ptr @_ZTI14btConcaveShape, ptr @_ZN14btConcaveShapeD1Ev, ptr @_ZN14btConcaveShapeD0Ev, ptr @__cxa_pure_virtual, ptr @_ZNK16btCollisionShape17getBoundingSphereER9btVector3Rf, ptr @_ZNK16btCollisionShape20getAngularMotionDiscEv, ptr @_ZNK16btCollisionShape27getContactBreakingThresholdEf, ptr @__cxa_pure_virtual, ptr @__cxa_pure_virtual, ptr @__cxa_pure_virtual, ptr @__cxa_pure_virtual, ptr @_ZNK16btCollisionShape38getAnisotropicRollingFrictionDirectionEv, ptr @_ZN14btConcaveShape9setMarginEf, ptr @_ZNK14btConcaveShape9getMarginEv, ptr @_ZNK16btCollisionShape28calculateSerializeBufferSizeEv, ptr @_ZNK16btCollisionShape9serializeEPvP12btSerializer, ptr @_ZNK16btCollisionShape20serializeSingleShapeEP12btSerializer, ptr @__cxa_pure_virtual] }, align 8
@_ZTVN10__cxxabiv120__si_class_type_infoE = external global [0 x ptr]
@_ZTS14btConcaveShape = dso_local constant [17 x i8] c"14btConcaveShape\00", align 1
@_ZTI16btCollisionShape = external constant ptr
@_ZTI14btConcaveShape = dso_local constant { ptr, ptr, ptr } { ptr getelementptr inbounds (ptr, ptr @_ZTVN10__cxxabiv120__si_class_type_infoE, i64 2), ptr @_ZTS14btConcaveShape, ptr @_ZTI16btCollisionShape }, align 8
@_ZTV16btCollisionShape = external unnamed_addr constant { [18 x ptr] }, align 8
@llvm.global_ctors = appending global [1 x { i32, ptr, ptr }] [{ i32, ptr, ptr } { i32 65535, ptr @_GLOBAL__sub_I_btConcaveShape.cpp, ptr null }]

@_ZN14btConcaveShapeD1Ev = dso_local unnamed_addr alias void (ptr), ptr @_ZN14btConcaveShapeD2Ev

; Function Attrs: uwtable
define internal void @__cxx_global_var_init() #0 section ".text.startup" {
entry:
  call void @_ZN18btInfMaskConverterC2Ei(ptr noundef nonnull align 4 dereferenceable(4) @_ZL14btInfinityMask, i32 noundef 2139095040)
  ret void
}

; Function Attrs: mustprogress nounwind uwtable
define linkonce_odr dso_local void @_ZN18btInfMaskConverterC2Ei(ptr noundef nonnull align 4 dereferenceable(4) %this, i32 noundef %_mask) unnamed_addr #1 comdat align 2 {
entry:
  %this.addr = alloca ptr, align 8
  %_mask.addr = alloca i32, align 4
  store ptr %this, ptr %this.addr, align 8
  store i32 %_mask, ptr %_mask.addr, align 4
  %this1 = load ptr, ptr %this.addr, align 8
  %0 = getelementptr inbounds %struct.btInfMaskConverter, ptr %this1, i32 0, i32 0
  %1 = load i32, ptr %_mask.addr, align 4
  store i32 %1, ptr %0, align 4
  ret void
}

; Function Attrs: mustprogress uwtable
define dso_local void @_ZN14btConcaveShapeC2Ev(ptr noundef nonnull align 8 dereferenceable(36) %this) unnamed_addr #2 align 2 {
entry:
  %this.addr = alloca ptr, align 8
  store ptr %this, ptr %this.addr, align 8
  %this1 = load ptr, ptr %this.addr, align 8
  call void @_ZN16btCollisionShapeC2Ev(ptr noundef nonnull align 8 dereferenceable(32) %this1)
  store ptr getelementptr inbounds ({ [19 x ptr] }, ptr @_ZTV14btConcaveShape, i32 0, i32 0, i32 2), ptr %this1, align 8
  %m_collisionMargin = getelementptr inbounds %class.btConcaveShape, ptr %this1, i32 0, i32 1
  store float 0.000000e+00, ptr %m_collisionMargin, align 8
  ret void
}

; Function Attrs: mustprogress nounwind uwtable
define linkonce_odr dso_local void @_ZN16btCollisionShapeC2Ev(ptr noundef nonnull align 8 dereferenceable(32) %this) unnamed_addr #1 comdat align 2 {
entry:
  %this.addr = alloca ptr, align 8
  store ptr %this, ptr %this.addr, align 8
  %this1 = load ptr, ptr %this.addr, align 8
  store ptr getelementptr inbounds ({ [18 x ptr] }, ptr @_ZTV16btCollisionShape, i32 0, i32 0, i32 2), ptr %this1, align 8
  %m_shapeType = getelementptr inbounds %class.btCollisionShape, ptr %this1, i32 0, i32 1
  store i32 35, ptr %m_shapeType, align 8
  %m_userPointer = getelementptr inbounds %class.btCollisionShape, ptr %this1, i32 0, i32 2
  store ptr null, ptr %m_userPointer, align 8
  %m_userIndex = getelementptr inbounds %class.btCollisionShape, ptr %this1, i32 0, i32 3
  store i32 -1, ptr %m_userIndex, align 8
  %m_userIndex2 = getelementptr inbounds %class.btCollisionShape, ptr %this1, i32 0, i32 4
  store i32 -1, ptr %m_userIndex2, align 4
  ret void
}

; Function Attrs: mustprogress nounwind uwtable
define dso_local void @_ZN14btConcaveShapeD2Ev(ptr noundef nonnull align 8 dereferenceable(36) %this) unnamed_addr #1 align 2 {
entry:
  %this.addr = alloca ptr, align 8
  store ptr %this, ptr %this.addr, align 8
  %this1 = load ptr, ptr %this.addr, align 8
  call void @_ZN16btCollisionShapeD2Ev(ptr noundef nonnull align 8 dereferenceable(32) %this1) #5
  ret void
}

; Function Attrs: mustprogress nounwind uwtable
define linkonce_odr dso_local void @_ZN16btCollisionShapeD2Ev(ptr noundef nonnull align 8 dereferenceable(32) %this) unnamed_addr #1 comdat align 2 {
entry:
  %this.addr = alloca ptr, align 8
  store ptr %this, ptr %this.addr, align 8
  ret void
}

; Function Attrs: mustprogress nounwind uwtable
define dso_local void @_ZN14btConcaveShapeD0Ev(ptr noundef nonnull align 8 dereferenceable(36) %this) unnamed_addr #1 align 2 {
entry:
  %this.addr = alloca ptr, align 8
  store ptr %this, ptr %this.addr, align 8
  call void @llvm.trap() #6
  unreachable
}

; Function Attrs: cold noreturn nounwind memory(inaccessiblemem: write)
declare void @llvm.trap() #3

declare void @__cxa_pure_virtual() unnamed_addr

declare void @_ZNK16btCollisionShape17getBoundingSphereER9btVector3Rf(ptr noundef nonnull align 8 dereferenceable(32), ptr noundef nonnull align 4 dereferenceable(16), ptr noundef nonnull align 4 dereferenceable(4)) unnamed_addr #4

declare noundef float @_ZNK16btCollisionShape20getAngularMotionDiscEv(ptr noundef nonnull align 8 dereferenceable(32)) unnamed_addr #4

declare noundef float @_ZNK16btCollisionShape27getContactBreakingThresholdEf(ptr noundef nonnull align 8 dereferenceable(32), float noundef) unnamed_addr #4

; Function Attrs: mustprogress uwtable
define linkonce_odr dso_local { <2 x float>, <2 x float> } @_ZNK16btCollisionShape38getAnisotropicRollingFrictionDirectionEv(ptr noundef nonnull align 8 dereferenceable(32) %this) unnamed_addr #2 comdat align 2 {
entry:
  %retval = alloca %class.btVector3, align 4
  %this.addr = alloca ptr, align 8
  %ref.tmp = alloca float, align 4
  %ref.tmp2 = alloca float, align 4
  %ref.tmp3 = alloca float, align 4
  store ptr %this, ptr %this.addr, align 8
  store float 1.000000e+00, ptr %ref.tmp, align 4
  store float 1.000000e+00, ptr %ref.tmp2, align 4
  store float 1.000000e+00, ptr %ref.tmp3, align 4
  call void @_ZN9btVector3C2ERKfS1_S1_(ptr noundef nonnull align 4 dereferenceable(16) %retval, ptr noundef nonnull align 4 dereferenceable(4) %ref.tmp, ptr noundef nonnull align 4 dereferenceable(4) %ref.tmp2, ptr noundef nonnull align 4 dereferenceable(4) %ref.tmp3)
  %coerce.dive = getelementptr inbounds %class.btVector3, ptr %retval, i32 0, i32 0
  %0 = load { <2 x float>, <2 x float> }, ptr %coerce.dive, align 4
  ret { <2 x float>, <2 x float> } %0
}

; Function Attrs: mustprogress nounwind uwtable
define linkonce_odr dso_local void @_ZN14btConcaveShape9setMarginEf(ptr noundef nonnull align 8 dereferenceable(36) %this, float noundef %collisionMargin) unnamed_addr #1 comdat align 2 {
entry:
  %this.addr = alloca ptr, align 8
  %collisionMargin.addr = alloca float, align 4
  store ptr %this, ptr %this.addr, align 8
  store float %collisionMargin, ptr %collisionMargin.addr, align 4
  %this1 = load ptr, ptr %this.addr, align 8
  %0 = load float, ptr %collisionMargin.addr, align 4
  %m_collisionMargin = getelementptr inbounds %class.btConcaveShape, ptr %this1, i32 0, i32 1
  store float %0, ptr %m_collisionMargin, align 8
  ret void
}

; Function Attrs: mustprogress nounwind uwtable
define linkonce_odr dso_local noundef float @_ZNK14btConcaveShape9getMarginEv(ptr noundef nonnull align 8 dereferenceable(36) %this) unnamed_addr #1 comdat align 2 {
entry:
  %this.addr = alloca ptr, align 8
  store ptr %this, ptr %this.addr, align 8
  %this1 = load ptr, ptr %this.addr, align 8
  %m_collisionMargin = getelementptr inbounds %class.btConcaveShape, ptr %this1, i32 0, i32 1
  %0 = load float, ptr %m_collisionMargin, align 8
  ret float %0
}

; Function Attrs: mustprogress nounwind uwtable
define linkonce_odr dso_local noundef i32 @_ZNK16btCollisionShape28calculateSerializeBufferSizeEv(ptr noundef nonnull align 8 dereferenceable(32) %this) unnamed_addr #1 comdat align 2 {
entry:
  %this.addr = alloca ptr, align 8
  store ptr %this, ptr %this.addr, align 8
  ret i32 16
}

declare noundef ptr @_ZNK16btCollisionShape9serializeEPvP12btSerializer(ptr noundef nonnull align 8 dereferenceable(32), ptr noundef, ptr noundef) unnamed_addr #4

declare void @_ZNK16btCollisionShape20serializeSingleShapeEP12btSerializer(ptr noundef nonnull align 8 dereferenceable(32), ptr noundef) unnamed_addr #4

; Function Attrs: mustprogress nounwind uwtable
define linkonce_odr dso_local void @_ZN9btVector3C2ERKfS1_S1_(ptr noundef nonnull align 4 dereferenceable(16) %this, ptr noundef nonnull align 4 dereferenceable(4) %_x, ptr noundef nonnull align 4 dereferenceable(4) %_y, ptr noundef nonnull align 4 dereferenceable(4) %_z) unnamed_addr #1 comdat align 2 {
entry:
  %this.addr = alloca ptr, align 8
  %_x.addr = alloca ptr, align 8
  %_y.addr = alloca ptr, align 8
  %_z.addr = alloca ptr, align 8
  store ptr %this, ptr %this.addr, align 8
  store ptr %_x, ptr %_x.addr, align 8
  store ptr %_y, ptr %_y.addr, align 8
  store ptr %_z, ptr %_z.addr, align 8
  %this1 = load ptr, ptr %this.addr, align 8
  %0 = load ptr, ptr %_x.addr, align 8
  %1 = load float, ptr %0, align 4
  %m_floats = getelementptr inbounds %class.btVector3, ptr %this1, i32 0, i32 0
  %arrayidx = getelementptr inbounds [4 x float], ptr %m_floats, i64 0, i64 0
  store float %1, ptr %arrayidx, align 4
  %2 = load ptr, ptr %_y.addr, align 8
  %3 = load float, ptr %2, align 4
  %m_floats2 = getelementptr inbounds %class.btVector3, ptr %this1, i32 0, i32 0
  %arrayidx3 = getelementptr inbounds [4 x float], ptr %m_floats2, i64 0, i64 1
  store float %3, ptr %arrayidx3, align 4
  %4 = load ptr, ptr %_z.addr, align 8
  %5 = load float, ptr %4, align 4
  %m_floats4 = getelementptr inbounds %class.btVector3, ptr %this1, i32 0, i32 0
  %arrayidx5 = getelementptr inbounds [4 x float], ptr %m_floats4, i64 0, i64 2
  store float %5, ptr %arrayidx5, align 4
  %m_floats6 = getelementptr inbounds %class.btVector3, ptr %this1, i32 0, i32 0
  %arrayidx7 = getelementptr inbounds [4 x float], ptr %m_floats6, i64 0, i64 3
  store float 0.000000e+00, ptr %arrayidx7, align 4
  ret void
}

; Function Attrs: uwtable
define internal void @_GLOBAL__sub_I_btConcaveShape.cpp() #0 section ".text.startup" {
entry:
  call void @__cxx_global_var_init()
  ret void
}


!llvm.module.flags = !{!0, !1, !2, !3, !4}

!0 = !{i32 1, !"wchar_size", i32 4}
!1 = !{i32 8, !"PIC Level", i32 2}
!2 = !{i32 7, !"PIE Level", i32 2}
!3 = !{i32 7, !"uwtable", i32 2}
!4 = !{i32 7, !"frame-pointer", i32 2}
