; ModuleID = 'bench/bullet3/original/btConcaveShape.ll'
source_filename = "bench/bullet3/original/btConcaveShape.ll"
target datalayout = "e-m:e-p270:32:32-p271:32:32-p272:64:64-i64:64-i128:128-f80:128-n8:16:32:64-S128"
target triple = "x86_64-unknown-linux-gnu"

$_ZNK16btCollisionShape38getAnisotropicRollingFrictionDirectionEv = comdat any

$_ZN14btConcaveShape9setMarginEf = comdat any

$_ZNK14btConcaveShape9getMarginEv = comdat any

$_ZNK16btCollisionShape28calculateSerializeBufferSizeEv = comdat any

@_ZTV14btConcaveShape = dso_local unnamed_addr constant { [19 x ptr] } { [19 x ptr] [ptr null, ptr @_ZTI14btConcaveShape, ptr @_ZN14btConcaveShapeD2Ev, ptr @_ZN14btConcaveShapeD0Ev, ptr @__cxa_pure_virtual, ptr @_ZNK16btCollisionShape17getBoundingSphereER9btVector3Rf, ptr @_ZNK16btCollisionShape20getAngularMotionDiscEv, ptr @_ZNK16btCollisionShape27getContactBreakingThresholdEf, ptr @__cxa_pure_virtual, ptr @__cxa_pure_virtual, ptr @__cxa_pure_virtual, ptr @__cxa_pure_virtual, ptr @_ZNK16btCollisionShape38getAnisotropicRollingFrictionDirectionEv, ptr @_ZN14btConcaveShape9setMarginEf, ptr @_ZNK14btConcaveShape9getMarginEv, ptr @_ZNK16btCollisionShape28calculateSerializeBufferSizeEv, ptr @_ZNK16btCollisionShape9serializeEPvP12btSerializer, ptr @_ZNK16btCollisionShape20serializeSingleShapeEP12btSerializer, ptr @__cxa_pure_virtual] }, align 8
@_ZTVN10__cxxabiv120__si_class_type_infoE = external global [0 x ptr]
@_ZTS14btConcaveShape = dso_local constant [17 x i8] c"14btConcaveShape\00", align 1
@_ZTI16btCollisionShape = external constant ptr
@_ZTI14btConcaveShape = dso_local constant { ptr, ptr, ptr } { ptr getelementptr inbounds (ptr, ptr @_ZTVN10__cxxabiv120__si_class_type_infoE, i64 2), ptr @_ZTS14btConcaveShape, ptr @_ZTI16btCollisionShape }, align 8
@llvm.global_ctors = appending global [0 x { i32, ptr, ptr }] zeroinitializer

@_ZN14btConcaveShapeD1Ev = dso_local unnamed_addr alias void (ptr), ptr @_ZN14btConcaveShapeD2Ev

; Function Attrs: mustprogress nofree norecurse nosync nounwind willreturn memory(argmem: write) uwtable
define dso_local void @_ZN14btConcaveShapeC2Ev(ptr nocapture noundef nonnull writeonly align 8 dereferenceable(36) %this) unnamed_addr #0 align 2 {
entry:
  %m_shapeType.i = getelementptr inbounds i8, ptr %this, i64 8
  store i32 35, ptr %m_shapeType.i, align 8
  %m_userPointer.i = getelementptr inbounds i8, ptr %this, i64 16
  store ptr null, ptr %m_userPointer.i, align 8
  %m_userIndex.i = getelementptr inbounds i8, ptr %this, i64 24
  store i32 -1, ptr %m_userIndex.i, align 8
  %m_userIndex2.i = getelementptr inbounds i8, ptr %this, i64 28
  store i32 -1, ptr %m_userIndex2.i, align 4
  store ptr getelementptr inbounds ({ [19 x ptr] }, ptr @_ZTV14btConcaveShape, i64 0, i32 0, i64 2), ptr %this, align 8
  %m_collisionMargin = getelementptr inbounds i8, ptr %this, i64 32
  store float 0.000000e+00, ptr %m_collisionMargin, align 8
  ret void
}

; Function Attrs: mustprogress nofree norecurse nosync nounwind willreturn memory(none) uwtable
define dso_local void @_ZN14btConcaveShapeD2Ev(ptr nocapture nonnull readnone align 8 %this) unnamed_addr #1 align 2 {
entry:
  ret void
}

; Function Attrs: mustprogress noreturn nounwind memory(inaccessiblemem: write) uwtable
define dso_local void @_ZN14btConcaveShapeD0Ev(ptr nocapture nonnull readnone align 8 %this) unnamed_addr #2 align 2 {
entry:
  tail call void @llvm.trap() #7
  unreachable
}

; Function Attrs: cold noreturn nounwind memory(inaccessiblemem: write)
declare void @llvm.trap() #3

declare void @__cxa_pure_virtual() unnamed_addr

declare void @_ZNK16btCollisionShape17getBoundingSphereER9btVector3Rf(ptr noundef nonnull align 8 dereferenceable(32), ptr noundef nonnull align 4 dereferenceable(16), ptr noundef nonnull align 4 dereferenceable(4)) unnamed_addr #4

declare noundef float @_ZNK16btCollisionShape20getAngularMotionDiscEv(ptr noundef nonnull align 8 dereferenceable(32)) unnamed_addr #4

declare noundef float @_ZNK16btCollisionShape27getContactBreakingThresholdEf(ptr noundef nonnull align 8 dereferenceable(32), float noundef) unnamed_addr #4

; Function Attrs: mustprogress uwtable
define linkonce_odr dso_local { <2 x float>, <2 x float> } @_ZNK16btCollisionShape38getAnisotropicRollingFrictionDirectionEv(ptr noundef nonnull align 8 dereferenceable(32) %this) unnamed_addr #5 comdat align 2 {
entry:
  ret { <2 x float>, <2 x float> } { <2 x float> <float 1.000000e+00, float 1.000000e+00>, <2 x float> <float 1.000000e+00, float 0.000000e+00> }
}

; Function Attrs: mustprogress nounwind uwtable
define linkonce_odr dso_local void @_ZN14btConcaveShape9setMarginEf(ptr noundef nonnull align 8 dereferenceable(36) %this, float noundef %collisionMargin) unnamed_addr #6 comdat align 2 {
entry:
  %m_collisionMargin = getelementptr inbounds i8, ptr %this, i64 32
  store float %collisionMargin, ptr %m_collisionMargin, align 8
  ret void
}

; Function Attrs: mustprogress nounwind uwtable
define linkonce_odr dso_local noundef float @_ZNK14btConcaveShape9getMarginEv(ptr noundef nonnull align 8 dereferenceable(36) %this) unnamed_addr #6 comdat align 2 {
entry:
  %m_collisionMargin = getelementptr inbounds i8, ptr %this, i64 32
  %0 = load float, ptr %m_collisionMargin, align 8
  ret float %0
}

; Function Attrs: mustprogress nounwind uwtable
define linkonce_odr dso_local noundef i32 @_ZNK16btCollisionShape28calculateSerializeBufferSizeEv(ptr noundef nonnull align 8 dereferenceable(32) %this) unnamed_addr #6 comdat align 2 {
entry:
  ret i32 16
}

declare noundef ptr @_ZNK16btCollisionShape9serializeEPvP12btSerializer(ptr noundef nonnull align 8 dereferenceable(32), ptr noundef, ptr noundef) unnamed_addr #4

declare void @_ZNK16btCollisionShape20serializeSingleShapeEP12btSerializer(ptr noundef nonnull align 8 dereferenceable(32), ptr noundef) unnamed_addr #4


!llvm.module.flags = !{!0, !1, !2, !3, !4}

!0 = !{i32 1, !"wchar_size", i32 4}
!1 = !{i32 8, !"PIC Level", i32 2}
!2 = !{i32 7, !"PIE Level", i32 2}
!3 = !{i32 7, !"uwtable", i32 2}
!4 = !{i32 7, !"frame-pointer", i32 2}
